target datalayout = "e-m:e-p270:32:32-p271:32:32-p272:64:64-i64:64-i128:128-f80:128-n8:16:32:64-S128"
target triple = "x86_64-pc-linux-gnu"

%struct.sockaddr_un = type { i16, [108 x i8] }

; Function Attrs: nounwind uwtable
define internal i32 @uv__pipe_getsockpeername(ptr noundef %0, ptr noundef %1, ptr noundef %2, ptr noundef %3) #0 {
  %5 = alloca i32, align 4
  %6 = alloca ptr, align 8
  %7 = alloca ptr, align 8
  %8 = alloca ptr, align 8
  %9 = alloca ptr, align 8
  %10 = alloca %struct.sockaddr_un, align 2
  %11 = alloca i32, align 4
  %12 = alloca i64, align 8
  %13 = alloca ptr, align 8
  %14 = alloca i32, align 4
  %15 = alloca i32, align 4
  store ptr %0, ptr %6, align 8
  store ptr %1, ptr %7, align 8
  store ptr %2, ptr %8, align 8
  store ptr %3, ptr %9, align 8
  call void @llvm.lifetime.start.p0(i64 110, ptr %10) #10
  call void @llvm.lifetime.start.p0(i64 4, ptr %11) #10
  call void @llvm.lifetime.start.p0(i64 8, ptr %12) #10
  call void @llvm.lifetime.start.p0(i64 8, ptr %13) #10
  call void @llvm.lifetime.start.p0(i64 4, ptr %14) #10
  %16 = load ptr, ptr %8, align 8
  %17 = icmp eq ptr %16, null
  br i1 %17, label %25, label %18

18:                                               ; preds = %4
  %19 = load ptr, ptr %9, align 8
  %20 = icmp eq ptr %19, null
  br i1 %20, label %25, label %21

21:                                               ; preds = %18
  %22 = load ptr, ptr %9, align 8
  %23 = load i64, ptr %22, align 8
  %24 = icmp eq i64 %23, 0
  br i1 %24, label %25, label %26

25:                                               ; preds = %21, %18, %4
  store i32 -22, ptr %5, align 4
  store i32 1, ptr %15, align 4
  br label %100

26:                                               ; preds = %21
  store i32 110, ptr %11, align 4
  %27 = load i32, ptr %11, align 4
  %28 = zext i32 %27 to i64
  call void @llvm.memset.p0.i64(ptr align 2 %10, i8 0, i64 %28, i1 false)
  %29 = load ptr, ptr %6, align 8
  %30 = load ptr, ptr %7, align 8
  %31 = call i32 @uv__getsockpeername(ptr noundef %29, ptr noundef %30, ptr noundef %10, ptr noundef %11)
  store i32 %31, ptr %14, align 4
  %32 = load i32, ptr %14, align 4
  %33 = icmp slt i32 %32, 0
  br i1 %33, label %34, label %37

34:                                               ; preds = %26
  %35 = load ptr, ptr %9, align 8
  store i64 0, ptr %35, align 8
  %36 = load i32, ptr %14, align 4
  store i32 %36, ptr %5, align 4
  store i32 1, ptr %15, align 4
  br label %100

37:                                               ; preds = %26
  store i64 1, ptr %12, align 8
  %38 = getelementptr inbounds nuw %struct.sockaddr_un, ptr %10, i32 0, i32 1
  %39 = getelementptr inbounds [108 x i8], ptr %38, i64 0, i64 0
  %40 = load i8, ptr %39, align 2
  %41 = sext i8 %40 to i32
  %42 = icmp eq i32 %41, 0
  br i1 %42, label %43, label %48

43:                                               ; preds = %37
  store i64 0, ptr %12, align 8
  %44 = load i32, ptr %11, align 4
  %45 = zext i32 %44 to i64
  %46 = sub i64 %45, 2
  %47 = trunc i64 %46 to i32
  store i32 %47, ptr %11, align 4
  br label %66

48:                                               ; preds = %37
  %49 = getelementptr inbounds nuw %struct.sockaddr_un, ptr %10, i32 0, i32 1
  %50 = getelementptr inbounds [108 x i8], ptr %49, i64 0, i64 0
  %51 = call ptr @memchr(ptr noundef %50, i32 noundef 0, i64 noundef 108) #9
  store ptr %51, ptr %13, align 8
  %52 = load ptr, ptr %13, align 8
  %53 = icmp eq ptr %52, null
  br i1 %53, label %54, label %58

54:                                               ; preds = %48
  %55 = getelementptr inbounds nuw %struct.sockaddr_un, ptr %10, i32 0, i32 1
  %56 = getelementptr inbounds [108 x i8], ptr %55, i64 0, i64 0
  %57 = getelementptr inbounds nuw i8, ptr %56, i64 108
  store ptr %57, ptr %13, align 8
  br label %58

58:                                               ; preds = %54, %48
  %59 = load ptr, ptr %13, align 8
  %60 = getelementptr inbounds nuw %struct.sockaddr_un, ptr %10, i32 0, i32 1
  %61 = getelementptr inbounds [108 x i8], ptr %60, i64 0, i64 0
  %62 = ptrtoint ptr %59 to i64
  %63 = ptrtoint ptr %61 to i64
  %64 = sub i64 %62, %63
  %65 = trunc i64 %64 to i32
  store i32 %65, ptr %11, align 4
  br label %66

66:                                               ; preds = %58, %43
  %67 = load i32, ptr %11, align 4
  %68 = zext i32 %67 to i64
  %69 = load i64, ptr %12, align 8
  %70 = add i64 %68, %69
  %71 = load ptr, ptr %9, align 8
  %72 = load i64, ptr %71, align 8
  %73 = icmp ugt i64 %70, %72
  br i1 %73, label %74, label %80

74:                                               ; preds = %66
  %75 = load i32, ptr %11, align 4
  %76 = zext i32 %75 to i64
  %77 = load i64, ptr %12, align 8
  %78 = add i64 %76, %77
  %79 = load ptr, ptr %9, align 8
  store i64 %78, ptr %79, align 8
  store i32 -105, ptr %5, align 4
  store i32 1, ptr %15, align 4
  br label %100

80:                                               ; preds = %66
  %81 = load ptr, ptr %8, align 8
  %82 = getelementptr inbounds nuw %struct.sockaddr_un, ptr %10, i32 0, i32 1
  %83 = getelementptr inbounds [108 x i8], ptr %82, i64 0, i64 0
  %84 = load i32, ptr %11, align 4
  %85 = zext i32 %84 to i64
  call void @llvm.memcpy.p0.p0.i64(ptr align 1 %81, ptr align 2 %83, i64 %85, i1 false)
  %86 = load i32, ptr %11, align 4
  %87 = zext i32 %86 to i64
  %88 = load ptr, ptr %9, align 8
  store i64 %87, ptr %88, align 8
  %89 = load ptr, ptr %8, align 8
  %90 = getelementptr inbounds i8, ptr %89, i64 0
  %91 = load i8, ptr %90, align 1
  %92 = sext i8 %91 to i32
  %93 = icmp ne i32 %92, 0
  br i1 %93, label %94, label %99

94:                                               ; preds = %80
  %95 = load ptr, ptr %8, align 8
  %96 = load i32, ptr %11, align 4
  %97 = zext i32 %96 to i64
  %98 = getelementptr inbounds nuw i8, ptr %95, i64 %97
  store i8 0, ptr %98, align 1
  br label %99

99:                                               ; preds = %94, %80
  store i32 0, ptr %5, align 4
  store i32 1, ptr %15, align 4
  br label %100

100:                                              ; preds = %99, %74, %34, %25
  call void @llvm.lifetime.end.p0(i64 4, ptr %14) #10
  call void @llvm.lifetime.end.p0(i64 8, ptr %13) #10
  call void @llvm.lifetime.end.p0(i64 8, ptr %12) #10
  call void @llvm.lifetime.end.p0(i64 4, ptr %11) #10
  call void @llvm.lifetime.end.p0(i64 110, ptr %10) #10
  %101 = load i32, ptr %5, align 4
  ret i32 %101
}

; Function Attrs: nounwind uwtable
define dso_local i32 @uv_pipe_getsockname(ptr noundef %0, ptr noundef %1, ptr noundef %2) #0 {
  %4 = alloca ptr, align 8
  %5 = alloca ptr, align 8
  %6 = alloca ptr, align 8
  store ptr %0, ptr %4, align 8
  store ptr %1, ptr %5, align 8
  store ptr %2, ptr %6, align 8
  %7 = load ptr, ptr %4, align 8
  %8 = load ptr, ptr %5, align 8
  %9 = load ptr, ptr %6, align 8
  %10 = call i32 @uv__pipe_getsockpeername(ptr noundef %7, ptr noundef @getsockname, ptr noundef %8, ptr noundef %9)
  ret i32 %10
}